target datalayout = "e-m:e-p270:32:32-p271:32:32-p272:64:64-i64:64-i128:128-f80:128-n8:16:32:64-S128"
target triple = "x86_64-pc-linux-gnu"

%struct.darktable_t = type { %struct.dt_codepath_t, i32, i32, ptr, ptr, ptr, ptr, ptr, ptr, ptr, ptr, ptr, ptr, ptr, ptr, ptr, ptr, ptr, ptr, ptr, ptr, ptr, ptr, ptr, ptr, ptr, ptr, ptr, ptr, ptr, [64 x %struct.dt_pthread_mutex_t], %struct.dt_pthread_mutex_t, %struct.dt_pthread_mutex_t, %struct.dt_pthread_mutex_t, %struct.dt_pthread_mutex_t, %struct.dt_pthread_mutex_t, ptr, ptr, ptr, ptr, ptr, ptr, ptr, ptr, ptr, ptr, ptr, ptr, ptr, %struct.dt_lua_state_t, ptr, double, ptr, i32, [47 x i32], i32, i32, ptr, ptr, %struct.dt_sys_resources_t, %struct.dt_backthumb_t, %struct.dt_gimp_t }
%struct.dt_codepath_t = type { i8, [3 x i8] }
%struct.dt_pthread_mutex_t = type { %union.pthread_mutex_t }
%union.pthread_mutex_t = type { %struct.__pthread_mutex_s }
%struct.__pthread_mutex_s = type { i32, i32, i32, i32, i32, i16, i16, %struct.__pthread_internal_list }
%struct.__pthread_internal_list = type { ptr, ptr }
%struct.dt_lua_state_t = type { i32 }
%struct.dt_sys_resources_t = type { i64, i64, ptr, ptr, i32 }
%struct.dt_backthumb_t = type { double, double, i32, i32, i32, i32 }
%struct.dt_gimp_t = type { i32, ptr, ptr, i32, i32 }
%struct.dt_selection_t = type { ptr, i32 }

@darktable = external global %struct.darktable_t, align 8

; Function Attrs: nounwind uwtable
define internal void @_selection_update_collection(ptr noundef %0, i32 noundef %1, i32 noundef %2, ptr noundef %3, i32 noundef %4, ptr noundef %5) #0 {
  %7 = alloca ptr, align 8
  %8 = alloca i32, align 4
  %9 = alloca i32, align 4
  %10 = alloca ptr, align 8
  %11 = alloca i32, align 4
  %12 = alloca ptr, align 8
  %13 = alloca ptr, align 8
  store ptr %0, ptr %7, align 8, !tbaa !59
  store i32 %1, ptr %8, align 4, !tbaa !56
  store i32 %2, ptr %9, align 4, !tbaa !56
  store ptr %3, ptr %10, align 8, !tbaa !59
  store i32 %4, ptr %11, align 4, !tbaa !56
  store ptr %5, ptr %12, align 8, !tbaa !59
  call void @llvm.lifetime.start.p0(i64 8, ptr %13) #5
  %14 = load ptr, ptr %12, align 8, !tbaa !59
  store ptr %14, ptr %13, align 8, !tbaa !6
  %15 = load ptr, ptr %13, align 8, !tbaa !6
  %16 = getelementptr inbounds nuw %struct.dt_selection_t, ptr %15, i32 0, i32 0
  %17 = load ptr, ptr %16, align 8, !tbaa !11
  %18 = icmp ne ptr %17, null
  br i1 %18, label %19, label %23

19:                                               ; preds = %6
  %20 = load ptr, ptr %13, align 8, !tbaa !6
  %21 = getelementptr inbounds nuw %struct.dt_selection_t, ptr %20, i32 0, i32 0
  %22 = load ptr, ptr %21, align 8, !tbaa !11
  call void @dt_collection_free(ptr noundef %22)
  br label %23

23:                                               ; preds = %19, %6
  %24 = load ptr, ptr getelementptr inbounds nuw (%struct.darktable_t, ptr @darktable, i32 0, i32 21), align 8, !tbaa !16
  %25 = call ptr @dt_collection_new(ptr noundef %24)
  %26 = load ptr, ptr %13, align 8, !tbaa !6
  %27 = getelementptr inbounds nuw %struct.dt_selection_t, ptr %26, i32 0, i32 0
  store ptr %25, ptr %27, align 8, !tbaa !11
  %28 = load ptr, ptr %13, align 8, !tbaa !6
  %29 = getelementptr inbounds nuw %struct.dt_selection_t, ptr %28, i32 0, i32 0
  %30 = load ptr, ptr %29, align 8, !tbaa !11
  %31 = load ptr, ptr %13, align 8, !tbaa !6
  %32 = getelementptr inbounds nuw %struct.dt_selection_t, ptr %31, i32 0, i32 0
  %33 = load ptr, ptr %32, align 8, !tbaa !11
  %34 = call i32 @dt_collection_get_query_flags(ptr noundef %33)
  %35 = and i32 %34, -3
  call void @dt_collection_set_query_flags(ptr noundef %30, i32 noundef %35)
  %36 = load ptr, ptr %13, align 8, !tbaa !6
  %37 = getelementptr inbounds nuw %struct.dt_selection_t, ptr %36, i32 0, i32 0
  %38 = load ptr, ptr %37, align 8, !tbaa !11
  %39 = call i32 @dt_collection_update(ptr noundef %38)
  call void @llvm.lifetime.end.p0(i64 8, ptr %13) #5
  ret void
}