; Function Attrs: nounwind uwtable
define internal void @_selection_update_collection(ptr readnone captures(none) %0, i32 %1, i32 %2, ptr readnone captures(none) %3, i32 %4, ptr noundef captures(none) %5) #1 {
  %7 = load ptr, ptr %5, align 8, !tbaa !6
  %.not = icmp eq ptr %7, null
  br i1 %.not, label %9, label %8

8:                                                ; preds = %6
  tail call void @dt_collection_free(ptr noundef nonnull %7) #8
  br label %9

9:                                                ; preds = %8, %6
  %10 = load ptr, ptr getelementptr inbounds nuw (i8, ptr @darktable, i64 160), align 8, !tbaa !13
  %11 = tail call ptr @dt_collection_new(ptr noundef %10) #8
  store ptr %11, ptr %5, align 8, !tbaa !6
  %12 = tail call i32 @dt_collection_get_query_flags(ptr noundef %11) #8
  %13 = and i32 %12, -3
  tail call void @dt_collection_set_query_flags(ptr noundef %11, i32 noundef %13) #8
  %14 = load ptr, ptr %5, align 8, !tbaa !6
  %15 = tail call i32 @dt_collection_update(ptr noundef %14) #8
  ret void
}